target datalayout = "e-m:e-p270:32:32-p271:32:32-p272:64:64-i64:64-i128:128-f80:128-n8:16:32:64-S128"
target triple = "x86_64-unknown-linux-gnu"

%struct.E1000EState = type { %struct.PCIDevice, ptr, %struct.NICConf, %struct.MemoryRegion, %struct.MemoryRegion, %struct.MemoryRegion, %struct.MemoryRegion, i32, i16, i16, i16, i16, i8, %struct.E1000Core, i8, i8 }
%struct.PCIDevice = type { %struct.DeviceState, i8, i8, ptr, ptr, ptr, ptr, ptr, i32, %struct.PCIReqIDCache, [64 x i8], [7 x %struct.PCIIORegion], %struct.AddressSpace, %struct.MemoryRegion, %struct.MemoryRegion, ptr, ptr, [3 x ptr], i8, i8, i32, i8, i32, ptr, ptr, ptr, ptr, ptr, ptr, %struct.MemoryRegion, %struct.MemoryRegion, %struct.MemoryRegion, ptr, i8, i32, i8, %struct.PCIExpressDevice, ptr, ptr, i32, i8, %struct.MemoryRegion, i32, ptr, ptr, ptr, ptr, ptr, i32 }
%struct.DeviceState = type { %struct.Object, ptr, ptr, i8, i8, i64, ptr, i32, i8, ptr, %struct.NamedGPIOListHead, %struct.NamedClockListHead, %struct.BusStateHead, i32, i32, i32, %struct.ResettableState, ptr, %struct.MemReentrancyGuard }
%struct.Object = type { ptr, ptr, ptr, i32, ptr }
%struct.NamedGPIOListHead = type { ptr }
%struct.NamedClockListHead = type { ptr }
%struct.BusStateHead = type { ptr }
%struct.ResettableState = type { i32, i8, i8 }
%struct.MemReentrancyGuard = type { i8 }
%struct.PCIReqIDCache = type { ptr, i32 }
%struct.PCIIORegion = type { i64, i64, i8, ptr, ptr }
%struct.AddressSpace = type { %struct.rcu_head, ptr, ptr, ptr, i32, i32, ptr, %union.anon, %union.anon.0 }
%struct.rcu_head = type { ptr, ptr }
%union.anon = type { %struct.QTailQLink }
%struct.QTailQLink = type { ptr, ptr }
%union.anon.0 = type { %struct.QTailQLink }
%struct.PCIExpressDevice = type { i8, i8, i8, i16, %struct.PCIEAERLog, i16, i16, i16, %struct.PCIESriovPF, %struct.PCIESriovVF }
%struct.PCIEAERLog = type { i16, i16, ptr }
%struct.PCIESriovPF = type { i16, [7 x i8], ptr, ptr }
%struct.PCIESriovVF = type { ptr, i16 }
%struct.NICConf = type { %struct.MACAddr, %struct.NICPeers, i32 }
%struct.MACAddr = type { [6 x i8] }
%struct.NICPeers = type { [1024 x ptr], i32 }
%struct.MemoryRegion = type { %struct.Object, i8, i8, i8, i8, i8, i8, i8, i8, i8, i8, ptr, ptr, ptr, ptr, ptr, ptr, i32, i128, i64, ptr, i64, i8, i8, i8, i8, i8, ptr, i64, i32, %union.anon.1, %union.anon.2, %union.anon.3, ptr, i32, ptr, ptr, i8 }
%union.anon.1 = type { %struct.QTailQLink }
%union.anon.2 = type { %struct.QTailQLink }
%union.anon.3 = type { %struct.QTailQLink }
%struct.E1000Core = type { [32768 x i32], [7 x [32 x i16]], [64 x i16], [4 x i32], i32, i32, i8, ptr, [2 x %struct.e1000e_tx], ptr, i8, i32, i32, %struct.E1000IntrDelayTimer_st, %struct.E1000IntrDelayTimer_st, %struct.E1000IntrDelayTimer_st, %struct.E1000IntrDelayTimer_st, %struct.E1000IntrDelayTimer_st, %struct.E1000IntrDelayTimer_st, [5 x %struct.E1000IntrDelayTimer_st], ptr, i32, [5 x i32], i16, [6 x i8], ptr, ptr, ptr, i64 }
%struct.e1000e_tx = type { %struct.e1000x_txd_props, i8, i8, i8, ptr }
%struct.e1000x_txd_props = type { i8, i8, i16, i8, i8, i16, i32, i8, i16, i8, i8, i8 }
%struct.E1000IntrDelayTimer_st = type { ptr, i8, i32, i32, ptr }
%struct.timeval = type { i64, i64 }

@trace_events_enabled_count = external global i32, align 4
@message_with_timestamp = external global i8, align 1
@qemu_loglevel = external global i32, align 4
@_TRACE_E1000E_IO_READ_ADDR_DSTATE = external global i16, align 2
@.str.25 = private unnamed_addr constant [52 x i8] c"%d@%zu.%06zu:e1000e_io_read_addr IOADDR read 0x%lx\0A\00", align 1
@.str.26 = private unnamed_addr constant [39 x i8] c"e1000e_io_read_addr IOADDR read 0x%lx\0A\00", align 1
@_TRACE_E1000E_IO_READ_DATA_DSTATE = external global i16, align 2
@.str.33 = private unnamed_addr constant [66 x i8] c"%d@%zu.%06zu:e1000e_io_read_data IODATA read 0x%lx, value: 0x%lx\0A\00", align 1
@.str.34 = private unnamed_addr constant [53 x i8] c"e1000e_io_read_data IODATA read 0x%lx, value: 0x%lx\0A\00", align 1
@_TRACE_E1000E_WRN_IO_READ_UNKNOWN_DSTATE = external global i16, align 2
@.str.35 = private unnamed_addr constant [71 x i8] c"%d@%zu.%06zu:e1000e_wrn_io_read_unknown IO read unknown address 0x%lx\0A\00", align 1
@.str.36 = private unnamed_addr constant [58 x i8] c"e1000e_wrn_io_read_unknown IO read unknown address 0x%lx\0A\00", align 1

; Function Attrs: nounwind sspstrong uwtable
define internal zeroext i1 @qemu_loglevel_mask(i32 noundef %mask) #0 {
entry:
  %mask.addr = alloca i32, align 4
  store i32 %mask, ptr %mask.addr, align 4
  %0 = load i32, ptr @qemu_loglevel, align 4
  %1 = load i32, ptr %mask.addr, align 4
  %and = and i32 %0, %1
  %cmp = icmp ne i32 %and, 0
  ret i1 %cmp
}

; Function Attrs: nounwind sspstrong uwtable
define internal void @_nocheck__trace_e1000e_wrn_io_read_unknown(i64 noundef %addr) #0 {
entry:
  %addr.addr = alloca i64, align 8
  %_now = alloca %struct.timeval, align 8
  store i64 %addr, ptr %addr.addr, align 8
  %0 = load i32, ptr @trace_events_enabled_count, align 4
  %tobool = icmp ne i32 %0, 0
  %lnot = xor i1 %tobool, true
  %lnot1 = xor i1 %lnot, true
  %lnot.ext = zext i1 %lnot1 to i32
  %conv = sext i32 %lnot.ext to i64
  %tobool2 = icmp ne i64 %conv, 0
  br i1 %tobool2, label %land.lhs.true, label %if.end11

land.lhs.true:                                    ; preds = %entry
  %1 = load i16, ptr @_TRACE_E1000E_WRN_IO_READ_UNKNOWN_DSTATE, align 2
  %conv3 = zext i16 %1 to i32
  %tobool4 = icmp ne i32 %conv3, 0
  br i1 %tobool4, label %land.lhs.true5, label %if.end11

land.lhs.true5:                                   ; preds = %land.lhs.true
  %call = call zeroext i1 @qemu_loglevel_mask(i32 noundef 32768)
  br i1 %call, label %if.then, label %if.end11

if.then:                                          ; preds = %land.lhs.true5
  %2 = load i8, ptr @message_with_timestamp, align 1
  %tobool7 = trunc i8 %2 to i1
  br i1 %tobool7, label %if.then8, label %if.else

if.then8:                                         ; preds = %if.then
  %call9 = call i32 @gettimeofday(ptr noundef %_now, ptr noundef null) #6
  %call10 = call i32 @qemu_get_thread_id()
  %tv_sec = getelementptr inbounds %struct.timeval, ptr %_now, i32 0, i32 0
  %3 = load i64, ptr %tv_sec, align 8
  %tv_usec = getelementptr inbounds %struct.timeval, ptr %_now, i32 0, i32 1
  %4 = load i64, ptr %tv_usec, align 8
  %5 = load i64, ptr %addr.addr, align 8
  call void (ptr, ...) @qemu_log(ptr noundef @.str.35, i32 noundef %call10, i64 noundef %3, i64 noundef %4, i64 noundef %5)
  br label %if.end

if.else:                                          ; preds = %if.then
  %6 = load i64, ptr %addr.addr, align 8
  call void (ptr, ...) @qemu_log(ptr noundef @.str.36, i64 noundef %6)
  br label %if.end

if.end:                                           ; preds = %if.else, %if.then8
  br label %if.end11

if.end11:                                         ; preds = %if.end, %land.lhs.true5, %land.lhs.true, %entry
  ret void
}

; Function Attrs: nounwind sspstrong uwtable
define internal void @_nocheck__trace_e1000e_io_read_data(i64 noundef %addr, i64 noundef %val) #0 {
entry:
  %addr.addr = alloca i64, align 8
  %val.addr = alloca i64, align 8
  %_now = alloca %struct.timeval, align 8
  store i64 %addr, ptr %addr.addr, align 8
  store i64 %val, ptr %val.addr, align 8
  %0 = load i32, ptr @trace_events_enabled_count, align 4
  %tobool = icmp ne i32 %0, 0
  %lnot = xor i1 %tobool, true
  %lnot1 = xor i1 %lnot, true
  %lnot.ext = zext i1 %lnot1 to i32
  %conv = sext i32 %lnot.ext to i64
  %tobool2 = icmp ne i64 %conv, 0
  br i1 %tobool2, label %land.lhs.true, label %if.end11

land.lhs.true:                                    ; preds = %entry
  %1 = load i16, ptr @_TRACE_E1000E_IO_READ_DATA_DSTATE, align 2
  %conv3 = zext i16 %1 to i32
  %tobool4 = icmp ne i32 %conv3, 0
  br i1 %tobool4, label %land.lhs.true5, label %if.end11

land.lhs.true5:                                   ; preds = %land.lhs.true
  %call = call zeroext i1 @qemu_loglevel_mask(i32 noundef 32768)
  br i1 %call, label %if.then, label %if.end11

if.then:                                          ; preds = %land.lhs.true5
  %2 = load i8, ptr @message_with_timestamp, align 1
  %tobool7 = trunc i8 %2 to i1
  br i1 %tobool7, label %if.then8, label %if.else

if.then8:                                         ; preds = %if.then
  %call9 = call i32 @gettimeofday(ptr noundef %_now, ptr noundef null) #6
  %call10 = call i32 @qemu_get_thread_id()
  %tv_sec = getelementptr inbounds %struct.timeval, ptr %_now, i32 0, i32 0
  %3 = load i64, ptr %tv_sec, align 8
  %tv_usec = getelementptr inbounds %struct.timeval, ptr %_now, i32 0, i32 1
  %4 = load i64, ptr %tv_usec, align 8
  %5 = load i64, ptr %addr.addr, align 8
  %6 = load i64, ptr %val.addr, align 8
  call void (ptr, ...) @qemu_log(ptr noundef @.str.33, i32 noundef %call10, i64 noundef %3, i64 noundef %4, i64 noundef %5, i64 noundef %6)
  br label %if.end

if.else:                                          ; preds = %if.then
  %7 = load i64, ptr %addr.addr, align 8
  %8 = load i64, ptr %val.addr, align 8
  call void (ptr, ...) @qemu_log(ptr noundef @.str.34, i64 noundef %7, i64 noundef %8)
  br label %if.end

if.end:                                           ; preds = %if.else, %if.then8
  br label %if.end11

if.end11:                                         ; preds = %if.end, %land.lhs.true5, %land.lhs.true, %entry
  ret void
}

; Function Attrs: nounwind sspstrong uwtable
define internal void @_nocheck__trace_e1000e_io_read_addr(i64 noundef %addr) #0 {
entry:
  %addr.addr = alloca i64, align 8
  %_now = alloca %struct.timeval, align 8
  store i64 %addr, ptr %addr.addr, align 8
  %0 = load i32, ptr @trace_events_enabled_count, align 4
  %tobool = icmp ne i32 %0, 0
  %lnot = xor i1 %tobool, true
  %lnot1 = xor i1 %lnot, true
  %lnot.ext = zext i1 %lnot1 to i32
  %conv = sext i32 %lnot.ext to i64
  %tobool2 = icmp ne i64 %conv, 0
  br i1 %tobool2, label %land.lhs.true, label %if.end11

land.lhs.true:                                    ; preds = %entry
  %1 = load i16, ptr @_TRACE_E1000E_IO_READ_ADDR_DSTATE, align 2
  %conv3 = zext i16 %1 to i32
  %tobool4 = icmp ne i32 %conv3, 0
  br i1 %tobool4, label %land.lhs.true5, label %if.end11

land.lhs.true5:                                   ; preds = %land.lhs.true
  %call = call zeroext i1 @qemu_loglevel_mask(i32 noundef 32768)
  br i1 %call, label %if.then, label %if.end11

if.then:                                          ; preds = %land.lhs.true5
  %2 = load i8, ptr @message_with_timestamp, align 1
  %tobool7 = trunc i8 %2 to i1
  br i1 %tobool7, label %if.then8, label %if.else

if.then8:                                         ; preds = %if.then
  %call9 = call i32 @gettimeofday(ptr noundef %_now, ptr noundef null) #6
  %call10 = call i32 @qemu_get_thread_id()
  %tv_sec = getelementptr inbounds %struct.timeval, ptr %_now, i32 0, i32 0
  %3 = load i64, ptr %tv_sec, align 8
  %tv_usec = getelementptr inbounds %struct.timeval, ptr %_now, i32 0, i32 1
  %4 = load i64, ptr %tv_usec, align 8
  %5 = load i64, ptr %addr.addr, align 8
  call void (ptr, ...) @qemu_log(ptr noundef @.str.25, i32 noundef %call10, i64 noundef %3, i64 noundef %4, i64 noundef %5)
  br label %if.end

if.else:                                          ; preds = %if.then
  %6 = load i64, ptr %addr.addr, align 8
  call void (ptr, ...) @qemu_log(ptr noundef @.str.26, i64 noundef %6)
  br label %if.end

if.end:                                           ; preds = %if.else, %if.then8
  br label %if.end11

if.end11:                                         ; preds = %if.end, %land.lhs.true5, %land.lhs.true, %entry
  ret void
}

; Function Attrs: nounwind sspstrong uwtable
define internal void @trace_e1000e_wrn_io_read_unknown(i64 noundef %addr) #0 {
entry:
  %addr.addr = alloca i64, align 8
  store i64 %addr, ptr %addr.addr, align 8
  %0 = load i64, ptr %addr.addr, align 8
  call void @_nocheck__trace_e1000e_wrn_io_read_unknown(i64 noundef %0)
  ret void
}

; Function Attrs: nounwind sspstrong uwtable
define internal void @trace_e1000e_io_read_data(i64 noundef %addr, i64 noundef %val) #0 {
entry:
  %addr.addr = alloca i64, align 8
  %val.addr = alloca i64, align 8
  store i64 %addr, ptr %addr.addr, align 8
  store i64 %val, ptr %val.addr, align 8
  %0 = load i64, ptr %addr.addr, align 8
  %1 = load i64, ptr %val.addr, align 8
  call void @_nocheck__trace_e1000e_io_read_data(i64 noundef %0, i64 noundef %1)
  ret void
}

; Function Attrs: nounwind sspstrong uwtable
define internal void @trace_e1000e_io_read_addr(i64 noundef %addr) #0 {
entry:
  %addr.addr = alloca i64, align 8
  store i64 %addr, ptr %addr.addr, align 8
  %0 = load i64, ptr %addr.addr, align 8
  call void @_nocheck__trace_e1000e_io_read_addr(i64 noundef %0)
  ret void
}

; Function Attrs: nounwind sspstrong uwtable
define internal i64 @e1000e_io_read(ptr noundef %opaque, i64 noundef %addr, i32 noundef %size) #0 {
entry:
  %retval = alloca i64, align 8
  %opaque.addr = alloca ptr, align 8
  %addr.addr = alloca i64, align 8
  %size.addr = alloca i32, align 4
  %s = alloca ptr, align 8
  %idx = alloca i32, align 4
  %val = alloca i64, align 8
  store ptr %opaque, ptr %opaque.addr, align 8
  store i64 %addr, ptr %addr.addr, align 8
  store i32 %size, ptr %size.addr, align 4
  %0 = load ptr, ptr %opaque.addr, align 8
  store ptr %0, ptr %s, align 8
  store i32 0, ptr %idx, align 4
  %1 = load i64, ptr %addr.addr, align 8
  switch i64 %1, label %sw.default [
    i64 0, label %sw.bb
    i64 4, label %sw.bb3
  ]

sw.bb:                                            ; preds = %entry
  %2 = load ptr, ptr %s, align 8
  %ioaddr = getelementptr inbounds %struct.E1000EState, ptr %2, i32 0, i32 7
  %3 = load i32, ptr %ioaddr, align 16
  %conv = zext i32 %3 to i64
  call void @trace_e1000e_io_read_addr(i64 noundef %conv)
  %4 = load ptr, ptr %s, align 8
  %ioaddr1 = getelementptr inbounds %struct.E1000EState, ptr %4, i32 0, i32 7
  %5 = load i32, ptr %ioaddr1, align 16
  %conv2 = zext i32 %5 to i64
  store i64 %conv2, ptr %retval, align 8
  br label %return

sw.bb3:                                           ; preds = %entry
  %6 = load ptr, ptr %s, align 8
  %call = call zeroext i1 @e1000e_io_get_reg_index(ptr noundef %6, ptr noundef %idx)
  br i1 %call, label %if.then, label %if.end

if.then:                                          ; preds = %sw.bb3
  %7 = load ptr, ptr %s, align 8
  %core = getelementptr inbounds %struct.E1000EState, ptr %7, i32 0, i32 13
  %8 = load i32, ptr %idx, align 4
  %conv4 = zext i32 %8 to i64
  %call5 = call i64 @e1000e_core_read(ptr noundef %core, i64 noundef %conv4, i32 noundef 8)
  store i64 %call5, ptr %val, align 8
  %9 = load i32, ptr %idx, align 4
  %conv6 = zext i32 %9 to i64
  %10 = load i64, ptr %val, align 8
  call void @trace_e1000e_io_read_data(i64 noundef %conv6, i64 noundef %10)
  %11 = load i64, ptr %val, align 8
  store i64 %11, ptr %retval, align 8
  br label %return

if.end:                                           ; preds = %sw.bb3
  store i64 0, ptr %retval, align 8
  br label %return

sw.default:                                       ; preds = %entry
  %12 = load i64, ptr %addr.addr, align 8
  call void @trace_e1000e_wrn_io_read_unknown(i64 noundef %12)
  store i64 0, ptr %retval, align 8
  br label %return

return:                                           ; preds = %sw.default, %if.end, %if.then, %sw.bb
  %13 = load i64, ptr %retval, align 8
  ret i64 %13
}