; Function Attrs: nounwind sspstrong uwtable
define internal i64 @e1000e_io_read(ptr noundef %opaque, i64 noundef %addr, i32 %size) #0 {
entry:
  %_now.i.i20 = alloca %struct.timeval, align 8
  %_now.i.i6 = alloca %struct.timeval, align 8
  %_now.i.i = alloca %struct.timeval, align 8
  %idx = alloca i32, align 4
  store i32 0, ptr %idx, align 4
  switch i64 %addr, label %sw.default [
    i64 0, label %sw.bb
    i64 4, label %sw.bb3
  ]

sw.bb:                                            ; preds = %entry
  %ioaddr = getelementptr inbounds nuw i8, ptr %opaque, i64 11920
  %0 = load i32, ptr %ioaddr, align 16
  %conv = zext i32 %0 to i64
  call void @llvm.lifetime.start.p0(i64 16, ptr nonnull %_now.i.i)
  %1 = load i32, ptr @trace_events_enabled_count, align 4
  %tobool.i.i = icmp ne i32 %1, 0
  %2 = load i16, ptr @_TRACE_E1000E_IO_READ_ADDR_DSTATE, align 2
  %tobool4.i.i = icmp ne i16 %2, 0
  %or.cond.i.i = select i1 %tobool.i.i, i1 %tobool4.i.i, i1 false
  br i1 %or.cond.i.i, label %land.lhs.true5.i.i, label %trace_e1000e_io_read_addr.exit

land.lhs.true5.i.i:                               ; preds = %sw.bb
  %3 = load i32, ptr @qemu_loglevel, align 4
  %and.i.i.i = and i32 %3, 32768
  %cmp.i.not.i.i = icmp eq i32 %and.i.i.i, 0
  br i1 %cmp.i.not.i.i, label %trace_e1000e_io_read_addr.exit, label %if.then.i.i

if.then.i.i:                                      ; preds = %land.lhs.true5.i.i
  %4 = load i8, ptr @message_with_timestamp, align 1
  %tobool7.i.i = trunc i8 %4 to i1
  br i1 %tobool7.i.i, label %if.then8.i.i, label %if.else.i.i

if.then8.i.i:                                     ; preds = %if.then.i.i
  %call9.i.i = call i32 @gettimeofday(ptr noundef nonnull %_now.i.i, ptr noundef null) #9
  %call10.i.i = tail call i32 @qemu_get_thread_id() #9
  %5 = load i64, ptr %_now.i.i, align 8
  %tv_usec.i.i = getelementptr inbounds nuw i8, ptr %_now.i.i, i64 8
  %6 = load i64, ptr %tv_usec.i.i, align 8
  tail call void (ptr, ...) @qemu_log(ptr noundef nonnull @.str.25, i32 noundef %call10.i.i, i64 noundef %5, i64 noundef %6, i64 noundef range(i64 0, 4294967296) %conv) #9
  br label %trace_e1000e_io_read_addr.exit

if.else.i.i:                                      ; preds = %if.then.i.i
  tail call void (ptr, ...) @qemu_log(ptr noundef nonnull @.str.26, i64 noundef range(i64 0, 4294967296) %conv) #9
  br label %trace_e1000e_io_read_addr.exit

trace_e1000e_io_read_addr.exit:                   ; preds = %sw.bb, %land.lhs.true5.i.i, %if.then8.i.i, %if.else.i.i
  call void @llvm.lifetime.end.p0(i64 16, ptr nonnull %_now.i.i)
  %7 = load i32, ptr %ioaddr, align 16
  %conv2 = zext i32 %7 to i64
  br label %return

sw.bb3:                                           ; preds = %entry
  %8 = getelementptr i8, ptr %opaque, i64 11920
  %opaque.val = load i32, ptr %8, align 16
  %call = call fastcc zeroext i1 @e1000e_io_get_reg_index(i32 %opaque.val, ptr noundef %idx)
  br i1 %call, label %if.then, label %return

if.then:                                          ; preds = %sw.bb3
  %core = getelementptr inbounds nuw i8, ptr %opaque, i64 11936
  %9 = load i32, ptr %idx, align 4
  %conv4 = zext i32 %9 to i64
  %call5 = tail call i64 @e1000e_core_read(ptr noundef nonnull %core, i64 noundef %conv4, i32 noundef 8) #9
  call void @llvm.lifetime.start.p0(i64 16, ptr nonnull %_now.i.i6)
  %10 = load i32, ptr @trace_events_enabled_count, align 4
  %tobool.i.i7 = icmp ne i32 %10, 0
  %11 = load i16, ptr @_TRACE_E1000E_IO_READ_DATA_DSTATE, align 2
  %tobool4.i.i8 = icmp ne i16 %11, 0
  %or.cond.i.i9 = select i1 %tobool.i.i7, i1 %tobool4.i.i8, i1 false
  br i1 %or.cond.i.i9, label %land.lhs.true5.i.i10, label %trace_e1000e_io_read_data.exit

land.lhs.true5.i.i10:                             ; preds = %if.then
  %12 = load i32, ptr @qemu_loglevel, align 4
  %and.i.i.i11 = and i32 %12, 32768
  %cmp.i.not.i.i12 = icmp eq i32 %and.i.i.i11, 0
  br i1 %cmp.i.not.i.i12, label %trace_e1000e_io_read_data.exit, label %if.then.i.i13

if.then.i.i13:                                    ; preds = %land.lhs.true5.i.i10
  %13 = load i8, ptr @message_with_timestamp, align 1
  %tobool7.i.i14 = trunc i8 %13 to i1
  br i1 %tobool7.i.i14, label %if.then8.i.i16, label %if.else.i.i15

if.then8.i.i16:                                   ; preds = %if.then.i.i13
  %call9.i.i17 = call i32 @gettimeofday(ptr noundef nonnull %_now.i.i6, ptr noundef null) #9
  %call10.i.i18 = tail call i32 @qemu_get_thread_id() #9
  %14 = load i64, ptr %_now.i.i6, align 8
  %tv_usec.i.i19 = getelementptr inbounds nuw i8, ptr %_now.i.i6, i64 8
  %15 = load i64, ptr %tv_usec.i.i19, align 8
  tail call void (ptr, ...) @qemu_log(ptr noundef nonnull @.str.33, i32 noundef %call10.i.i18, i64 noundef %14, i64 noundef %15, i64 noundef range(i64 0, 4294967296) %conv4, i64 noundef %call5) #9
  br label %trace_e1000e_io_read_data.exit

if.else.i.i15:                                    ; preds = %if.then.i.i13
  tail call void (ptr, ...) @qemu_log(ptr noundef nonnull @.str.34, i64 noundef range(i64 0, 4294967296) %conv4, i64 noundef %call5) #9
  br label %trace_e1000e_io_read_data.exit

trace_e1000e_io_read_data.exit:                   ; preds = %if.then, %land.lhs.true5.i.i10, %if.then8.i.i16, %if.else.i.i15
  call void @llvm.lifetime.end.p0(i64 16, ptr nonnull %_now.i.i6)
  br label %return

sw.default:                                       ; preds = %entry
  call void @llvm.lifetime.start.p0(i64 16, ptr nonnull %_now.i.i20)
  %16 = load i32, ptr @trace_events_enabled_count, align 4
  %tobool.i.i21 = icmp ne i32 %16, 0
  %17 = load i16, ptr @_TRACE_E1000E_WRN_IO_READ_UNKNOWN_DSTATE, align 2
  %tobool4.i.i22 = icmp ne i16 %17, 0
  %or.cond.i.i23 = select i1 %tobool.i.i21, i1 %tobool4.i.i22, i1 false
  br i1 %or.cond.i.i23, label %land.lhs.true5.i.i24, label %trace_e1000e_wrn_io_read_unknown.exit

land.lhs.true5.i.i24:                             ; preds = %sw.default
  %18 = load i32, ptr @qemu_loglevel, align 4
  %and.i.i.i25 = and i32 %18, 32768
  %cmp.i.not.i.i26 = icmp eq i32 %and.i.i.i25, 0
  br i1 %cmp.i.not.i.i26, label %trace_e1000e_wrn_io_read_unknown.exit, label %if.then.i.i27

if.then.i.i27:                                    ; preds = %land.lhs.true5.i.i24
  %19 = load i8, ptr @message_with_timestamp, align 1
  %tobool7.i.i28 = trunc i8 %19 to i1
  br i1 %tobool7.i.i28, label %if.then8.i.i30, label %if.else.i.i29

if.then8.i.i30:                                   ; preds = %if.then.i.i27
  %call9.i.i31 = call i32 @gettimeofday(ptr noundef nonnull %_now.i.i20, ptr noundef null) #9
  %call10.i.i32 = tail call i32 @qemu_get_thread_id() #9
  %20 = load i64, ptr %_now.i.i20, align 8
  %tv_usec.i.i33 = getelementptr inbounds nuw i8, ptr %_now.i.i20, i64 8
  %21 = load i64, ptr %tv_usec.i.i33, align 8
  tail call void (ptr, ...) @qemu_log(ptr noundef nonnull @.str.35, i32 noundef %call10.i.i32, i64 noundef %20, i64 noundef %21, i64 noundef %addr) #9
  br label %trace_e1000e_wrn_io_read_unknown.exit

if.else.i.i29:                                    ; preds = %if.then.i.i27
  tail call void (ptr, ...) @qemu_log(ptr noundef nonnull @.str.36, i64 noundef %addr) #9
  br label %trace_e1000e_wrn_io_read_unknown.exit

trace_e1000e_wrn_io_read_unknown.exit:            ; preds = %sw.default, %land.lhs.true5.i.i24, %if.then8.i.i30, %if.else.i.i29
  call void @llvm.lifetime.end.p0(i64 16, ptr nonnull %_now.i.i20)
  br label %return

return:                                           ; preds = %sw.bb3, %trace_e1000e_wrn_io_read_unknown.exit, %trace_e1000e_io_read_data.exit, %trace_e1000e_io_read_addr.exit
  %retval.0 = phi i64 [ 0, %trace_e1000e_wrn_io_read_unknown.exit ], [ %call5, %trace_e1000e_io_read_data.exit ], [ %conv2, %trace_e1000e_io_read_addr.exit ], [ 0, %sw.bb3 ]
  ret i64 %retval.0
}